target datalayout = "e-m:e-p270:32:32-p271:32:32-p272:64:64-i64:64-i128:128-f80:128-n8:16:32:64-S128"
target triple = "x86_64-pc-linux-gnu"

; Function Attrs: nounwind uwtable
define internal i32 @pg_sjis_mblen(ptr noundef %0) #1 {
  %2 = alloca ptr, align 8
  %3 = alloca i32, align 4
  store ptr %0, ptr %2, align 8
  call void @llvm.lifetime.start.p0(i64 4, ptr %3) #7
  %4 = load ptr, ptr %2, align 8
  %5 = load i8, ptr %4, align 1
  %6 = zext i8 %5 to i32
  %7 = icmp sge i32 %6, 161
  br i1 %7, label %8, label %14

8:                                                ; preds = %1
  %9 = load ptr, ptr %2, align 8
  %10 = load i8, ptr %9, align 1
  %11 = zext i8 %10 to i32
  %12 = icmp sle i32 %11, 223
  br i1 %12, label %13, label %14

13:                                               ; preds = %8
  store i32 1, ptr %3, align 4
  br label %23

14:                                               ; preds = %8, %1
  %15 = load ptr, ptr %2, align 8
  %16 = load i8, ptr %15, align 1
  %17 = zext i8 %16 to i32
  %18 = and i32 %17, 128
  %19 = icmp ne i32 %18, 0
  br i1 %19, label %20, label %21

20:                                               ; preds = %14
  store i32 2, ptr %3, align 4
  br label %22

21:                                               ; preds = %14
  store i32 1, ptr %3, align 4
  br label %22

22:                                               ; preds = %21, %20
  br label %23

23:                                               ; preds = %22, %13
  %24 = load i32, ptr %3, align 4
  call void @llvm.lifetime.end.p0(i64 4, ptr %3) #7
  ret i32 %24
}

; Function Attrs: nounwind uwtable
define internal i32 @pg_sjis_verifychar(ptr noundef %0, i32 noundef %1) #1 {
  %3 = alloca i32, align 4
  %4 = alloca ptr, align 8
  %5 = alloca i32, align 4
  %6 = alloca i32, align 4
  %7 = alloca i32, align 4
  %8 = alloca i8, align 1
  %9 = alloca i8, align 1
  %10 = alloca i32, align 4
  store ptr %0, ptr %4, align 8
  store i32 %1, ptr %5, align 4
  call void @llvm.lifetime.start.p0(i64 4, ptr %6) #7
  call void @llvm.lifetime.start.p0(i64 4, ptr %7) #7
  call void @llvm.lifetime.start.p0(i64 1, ptr %8) #7
  call void @llvm.lifetime.start.p0(i64 1, ptr %9) #7
  %11 = load ptr, ptr %4, align 8
  %12 = call i32 @pg_sjis_mblen(ptr noundef %11)
  store i32 %12, ptr %7, align 4
  store i32 %12, ptr %6, align 4
  %13 = load i32, ptr %5, align 4
  %14 = load i32, ptr %6, align 4
  %15 = icmp slt i32 %13, %14
  br i1 %15, label %16, label %17

16:                                               ; preds = %2
  store i32 -1, ptr %3, align 4
  store i32 1, ptr %10, align 4
  br label %62

17:                                               ; preds = %2
  %18 = load i32, ptr %6, align 4
  %19 = icmp eq i32 %18, 1
  br i1 %19, label %20, label %22

20:                                               ; preds = %17
  %21 = load i32, ptr %7, align 4
  store i32 %21, ptr %3, align 4
  store i32 1, ptr %10, align 4
  br label %62

22:                                               ; preds = %17
  %23 = load ptr, ptr %4, align 8
  %24 = getelementptr inbounds nuw i8, ptr %23, i32 1
  store ptr %24, ptr %4, align 8
  %25 = load i8, ptr %23, align 1
  store i8 %25, ptr %8, align 1
  %26 = load ptr, ptr %4, align 8
  %27 = load i8, ptr %26, align 1
  store i8 %27, ptr %9, align 1
  %28 = load i8, ptr %8, align 1
  %29 = zext i8 %28 to i32
  %30 = icmp sge i32 %29, 129
  br i1 %30, label %31, label %35

31:                                               ; preds = %22
  %32 = load i8, ptr %8, align 1
  %33 = zext i8 %32 to i32
  %34 = icmp sle i32 %33, 159
  br i1 %34, label %43, label %35

35:                                               ; preds = %31, %22
  %36 = load i8, ptr %8, align 1
  %37 = zext i8 %36 to i32
  %38 = icmp sge i32 %37, 224
  br i1 %38, label %39, label %59

39:                                               ; preds = %35
  %40 = load i8, ptr %8, align 1
  %41 = zext i8 %40 to i32
  %42 = icmp sle i32 %41, 252
  br i1 %42, label %43, label %59

43:                                               ; preds = %39, %31
  %44 = load i8, ptr %9, align 1
  %45 = zext i8 %44 to i32
  %46 = icmp sge i32 %45, 64
  br i1 %46, label %47, label %51

47:                                               ; preds = %43
  %48 = load i8, ptr %9, align 1
  %49 = zext i8 %48 to i32
  %50 = icmp sle i32 %49, 126
  br i1 %50, label %60, label %51

51:                                               ; preds = %47, %43
  %52 = load i8, ptr %9, align 1
  %53 = zext i8 %52 to i32
  %54 = icmp sge i32 %53, 128
  br i1 %54, label %55, label %59

55:                                               ; preds = %51
  %56 = load i8, ptr %9, align 1
  %57 = zext i8 %56 to i32
  %58 = icmp sle i32 %57, 252
  br i1 %58, label %60, label %59

59:                                               ; preds = %55, %51, %39, %35
  store i32 -1, ptr %3, align 4
  store i32 1, ptr %10, align 4
  br label %62

60:                                               ; preds = %55, %47
  %61 = load i32, ptr %7, align 4
  store i32 %61, ptr %3, align 4
  store i32 1, ptr %10, align 4
  br label %62

62:                                               ; preds = %60, %59, %20, %16
  call void @llvm.lifetime.end.p0(i64 1, ptr %9) #7
  call void @llvm.lifetime.end.p0(i64 1, ptr %8) #7
  call void @llvm.lifetime.end.p0(i64 4, ptr %7) #7
  call void @llvm.lifetime.end.p0(i64 4, ptr %6) #7
  %63 = load i32, ptr %3, align 4
  ret i32 %63
}