; Function Attrs: mustprogress nofree norecurse nosync nounwind willreturn memory(argmem: read) uwtable
define internal range(i32 -1, 3) i32 @pg_sjis_verifychar(ptr noundef readonly captures(none) %0, i32 noundef %1) #0 {
  %3 = load i8, ptr %0, align 1
  %4 = add i8 %3, 95
  %or.cond.i = icmp ult i8 %4, 63
  %.not.i = icmp sgt i8 %3, -1
  %5 = or i1 %.not.i, %or.cond.i
  %.0.i = select i1 %5, i32 1, i32 2
  %6 = icmp slt i32 %1, %.0.i
  %brmerge = or i1 %5, %6
  %.mux = select i1 %6, i32 -1, i32 1
  br i1 %brmerge, label %14, label %7

7:                                                ; preds = %2
  %8 = add nsw i8 %3, 127
  %or.cond = icmp ult i8 %8, 31
  %9 = add nsw i8 %3, 32
  %or.cond5 = icmp ult i8 %9, 29
  %or.cond28 = or i1 %or.cond, %or.cond5
  br i1 %or.cond28, label %10, label %14

10:                                               ; preds = %7
  %11 = getelementptr inbounds nuw i8, ptr %0, i64 1
  %12 = load i8, ptr %11, align 1
  %13 = add i8 %12, -64
  %or.cond8 = icmp ult i8 %13, 63
  %or.cond11 = icmp slt i8 %12, -3
  %or.cond29 = or i1 %or.cond11, %or.cond8
  %spec.select = select i1 %or.cond29, i32 2, i32 -1
  br label %14

14:                                               ; preds = %2, %10, %7
  %.0 = phi i32 [ %.mux, %2 ], [ -1, %7 ], [ %spec.select, %10 ]
  ret i32 %.0
}